; Function Attrs: null_pointer_is_valid sspstrong uwtable
define hidden i32 @prefs_store_ext(ptr noundef %0, ptr noundef %1, ptr noundef %2) local_unnamed_addr #1 {
  %4 = tail call fastcc i32 @prefs_store_ext_helper(ptr noundef %0, ptr noundef %1, ptr noundef %2)
  %.not = icmp eq i32 %4, 0
  br i1 %.not, label %6, label %5

5:                                                ; preds = %3
  tail call void @prefs_main_write()
  tail call void @prefs_apply_all()
  br label %6

6:                                                ; preds = %3, %5
  ret i32 %4
}